target datalayout = "e-m:e-p270:32:32-p271:32:32-p272:64:64-i64:64-i128:128-f80:128-n8:16:32:64-S128"
target triple = "x86_64-pc-linux-gnu"

%struct.rb_iseq_struct = type { i64, i64, ptr, %union.anon.15 }
%union.anon.15 = type { %struct.anon.16 }
%struct.anon.16 = type { i64, i32 }
%struct.rb_iseq_constant_body = type { i32, i32, ptr, %struct.anon.18, %struct.rb_iseq_location_struct, %struct.iseq_insn_info, ptr, ptr, ptr, ptr, ptr, ptr, %struct.anon.19, i32, i32, i32, i32, i32, i32, i32, i32, i8, %union.anon.20, ptr, ptr, ptr, i64, ptr, i64, ptr, i64 }
%struct.anon.18 = type { %struct.anon, i32, i32, i32, i32, i32, i32, i32, ptr, ptr }
%struct.anon = type { i16, [2 x i8] }
%struct.rb_iseq_location_struct = type { i64, i64, i64, i32, i32, %struct.rb_code_location_struct }
%struct.rb_code_location_struct = type { %struct.rb_code_position_struct, %struct.rb_code_position_struct }
%struct.rb_code_position_struct = type { i32, i32 }
%struct.iseq_insn_info = type { ptr, ptr, i32, ptr }
%struct.anon.19 = type { i64, i64, i64, i64, ptr }
%union.anon.20 = type { ptr }

; Function Attrs: nounwind sspstrong uwtable
define hidden zeroext i1 @rb_iseq_only_kwparam_p(ptr noundef %0) #0 {
  %2 = alloca ptr, align 8
  store ptr %0, ptr %2, align 8, !tbaa !78
  %3 = load ptr, ptr %2, align 8, !tbaa !78
  %4 = getelementptr inbounds nuw %struct.rb_iseq_struct, ptr %3, i32 0, i32 2
  %5 = load ptr, ptr %4, align 8, !tbaa !81
  %6 = getelementptr inbounds nuw %struct.rb_iseq_constant_body, ptr %5, i32 0, i32 3
  %7 = getelementptr inbounds nuw %struct.anon.18, ptr %6, i32 0, i32 0
  %8 = load i16, ptr %7, align 8
  %9 = lshr i16 %8, 1
  %10 = and i16 %9, 1
  %11 = zext i16 %10 to i32
  %12 = icmp eq i32 %11, 0
  br i1 %12, label %13, label %79

13:                                               ; preds = %1
  %14 = load ptr, ptr %2, align 8, !tbaa !78
  %15 = getelementptr inbounds nuw %struct.rb_iseq_struct, ptr %14, i32 0, i32 2
  %16 = load ptr, ptr %15, align 8, !tbaa !81
  %17 = getelementptr inbounds nuw %struct.rb_iseq_constant_body, ptr %16, i32 0, i32 3
  %18 = getelementptr inbounds nuw %struct.anon.18, ptr %17, i32 0, i32 0
  %19 = load i16, ptr %18, align 8
  %20 = lshr i16 %19, 2
  %21 = and i16 %20, 1
  %22 = zext i16 %21 to i32
  %23 = icmp eq i32 %22, 0
  br i1 %23, label %24, label %79

24:                                               ; preds = %13
  %25 = load ptr, ptr %2, align 8, !tbaa !78
  %26 = getelementptr inbounds nuw %struct.rb_iseq_struct, ptr %25, i32 0, i32 2
  %27 = load ptr, ptr %26, align 8, !tbaa !81
  %28 = getelementptr inbounds nuw %struct.rb_iseq_constant_body, ptr %27, i32 0, i32 3
  %29 = getelementptr inbounds nuw %struct.anon.18, ptr %28, i32 0, i32 0
  %30 = load i16, ptr %29, align 8
  %31 = lshr i16 %30, 3
  %32 = and i16 %31, 1
  %33 = zext i16 %32 to i32
  %34 = icmp eq i32 %33, 0
  br i1 %34, label %35, label %79

35:                                               ; preds = %24
  %36 = load ptr, ptr %2, align 8, !tbaa !78
  %37 = getelementptr inbounds nuw %struct.rb_iseq_struct, ptr %36, i32 0, i32 2
  %38 = load ptr, ptr %37, align 8, !tbaa !81
  %39 = getelementptr inbounds nuw %struct.rb_iseq_constant_body, ptr %38, i32 0, i32 3
  %40 = getelementptr inbounds nuw %struct.anon.18, ptr %39, i32 0, i32 0
  %41 = load i16, ptr %40, align 8
  %42 = lshr i16 %41, 4
  %43 = and i16 %42, 1
  %44 = zext i16 %43 to i32
  %45 = icmp eq i32 %44, 1
  br i1 %45, label %46, label %79

46:                                               ; preds = %35
  %47 = load ptr, ptr %2, align 8, !tbaa !78
  %48 = getelementptr inbounds nuw %struct.rb_iseq_struct, ptr %47, i32 0, i32 2
  %49 = load ptr, ptr %48, align 8, !tbaa !81
  %50 = getelementptr inbounds nuw %struct.rb_iseq_constant_body, ptr %49, i32 0, i32 3
  %51 = getelementptr inbounds nuw %struct.anon.18, ptr %50, i32 0, i32 0
  %52 = load i16, ptr %51, align 8
  %53 = lshr i16 %52, 5
  %54 = and i16 %53, 1
  %55 = zext i16 %54 to i32
  %56 = icmp eq i32 %55, 0
  br i1 %56, label %57, label %79

57:                                               ; preds = %46
  %58 = load ptr, ptr %2, align 8, !tbaa !78
  %59 = getelementptr inbounds nuw %struct.rb_iseq_struct, ptr %58, i32 0, i32 2
  %60 = load ptr, ptr %59, align 8, !tbaa !81
  %61 = getelementptr inbounds nuw %struct.rb_iseq_constant_body, ptr %60, i32 0, i32 3
  %62 = getelementptr inbounds nuw %struct.anon.18, ptr %61, i32 0, i32 0
  %63 = load i16, ptr %62, align 8
  %64 = lshr i16 %63, 13
  %65 = and i16 %64, 1
  %66 = zext i16 %65 to i32
  %67 = icmp eq i32 %66, 0
  br i1 %67, label %68, label %79

68:                                               ; preds = %57
  %69 = load ptr, ptr %2, align 8, !tbaa !78
  %70 = getelementptr inbounds nuw %struct.rb_iseq_struct, ptr %69, i32 0, i32 2
  %71 = load ptr, ptr %70, align 8, !tbaa !81
  %72 = getelementptr inbounds nuw %struct.rb_iseq_constant_body, ptr %71, i32 0, i32 3
  %73 = getelementptr inbounds nuw %struct.anon.18, ptr %72, i32 0, i32 0
  %74 = load i16, ptr %73, align 8
  %75 = lshr i16 %74, 6
  %76 = and i16 %75, 1
  %77 = zext i16 %76 to i32
  %78 = icmp eq i32 %77, 0
  br label %79

79:                                               ; preds = %68, %57, %46, %35, %24, %13, %1
  %80 = phi i1 [ false, %57 ], [ false, %46 ], [ false, %35 ], [ false, %24 ], [ false, %13 ], [ false, %1 ], [ %78, %68 ]
  ret i1 %80
}